target datalayout = "e-m:e-p270:32:32-p271:32:32-p272:64:64-i64:64-i128:128-f80:128-n8:16:32:64-S128"
target triple = "x86_64-unknown-linux-gnu"

%"class.std::unique_ptr" = type { %"struct.std::__uniq_ptr_data" }
%"struct.std::__uniq_ptr_data" = type { %"class.std::__uniq_ptr_impl" }
%"class.std::__uniq_ptr_impl" = type { %"class.std::tuple" }
%"class.std::tuple" = type { %"struct.std::_Tuple_impl" }
%"struct.std::_Tuple_impl" = type { %"struct.std::_Head_base.1" }
%"struct.std::_Head_base.1" = type { ptr }
%"class.std::unique_ptr.10" = type { %"struct.std::__uniq_ptr_data.11" }
%"struct.std::__uniq_ptr_data.11" = type { %"class.std::__uniq_ptr_impl.12" }
%"class.std::__uniq_ptr_impl.12" = type { %"class.std::tuple.13" }
%"class.std::tuple.13" = type { %"struct.std::_Tuple_impl.14" }
%"struct.std::_Tuple_impl.14" = type { %"struct.std::_Head_base.17" }
%"struct.std::_Head_base.17" = type { ptr }
%"class.v8::IndirectHandleBase" = type { ptr }
%"class.node::crypto::SecureContext" = type { %"class.node::BaseObject", %"class.std::unique_ptr.30", %"class.std::unique_ptr", %"class.std::unique_ptr", i8, [7 x i8], %"struct.node::crypto::EnginePointer", [16 x i8], [16 x i8], [16 x i8] }
%"class.node::BaseObject" = type { %"class.node::MemoryRetainer", %"class.v8::Global", ptr, ptr }
%"class.node::MemoryRetainer" = type { ptr }
%"class.v8::Global" = type { %"class.v8::PersistentBase" }
%"class.v8::PersistentBase" = type { %"class.v8::IndirectHandleBase" }
%"class.std::unique_ptr.30" = type { %"struct.std::__uniq_ptr_data.31" }
%"struct.std::__uniq_ptr_data.31" = type { %"class.std::__uniq_ptr_impl.32" }
%"class.std::__uniq_ptr_impl.32" = type { %"class.std::tuple.33" }
%"class.std::tuple.33" = type { %"struct.std::_Tuple_impl.34" }
%"struct.std::_Tuple_impl.34" = type { %"struct.std::_Head_base.37" }
%"struct.std::_Head_base.37" = type { ptr }
%"struct.node::crypto::EnginePointer" = type <{ ptr, i8, [7 x i8] }>
%"class.node::BaseObjectPtrImpl" = type { %union.anon.29 }
%union.anon.29 = type { ptr }

; Function Attrs: mustprogress nounwind uwtable
define linkonce_odr dso_local noundef nonnull align 8 dereferenceable(8) ptr @_ZNSt10_Head_baseILm0EP6ssl_stLb0EE7_M_headERKS2_(ptr noundef nonnull align 8 dereferenceable(8) %__b) #4 comdat align 2 {
entry:
  %__b.addr = alloca ptr, align 8
  store ptr %__b, ptr %__b.addr, align 8
  %0 = load ptr, ptr %__b.addr, align 8
  %_M_head_impl = getelementptr inbounds %"struct.std::_Head_base.17", ptr %0, i32 0, i32 0
  ret ptr %_M_head_impl
}

; Function Attrs: mustprogress nounwind uwtable
define linkonce_odr dso_local noundef nonnull align 8 dereferenceable(8) ptr @_ZNSt10_Head_baseILm0EP10ssl_ctx_stLb0EE7_M_headERKS2_(ptr noundef nonnull align 8 dereferenceable(8) %__b) #4 comdat align 2 {
entry:
  %__b.addr = alloca ptr, align 8
  store ptr %__b, ptr %__b.addr, align 8
  %0 = load ptr, ptr %__b.addr, align 8
  %_M_head_impl = getelementptr inbounds %"struct.std::_Head_base.37", ptr %0, i32 0, i32 0
  ret ptr %_M_head_impl
}

; Function Attrs: mustprogress nounwind uwtable
define linkonce_odr dso_local noundef nonnull align 8 dereferenceable(8) ptr @_ZNSt11_Tuple_implILm0EJP6ssl_stN4node15FunctionDeleterIS0_XadL_Z8SSL_freeEEEEEE7_M_headERKS5_(ptr noundef nonnull align 8 dereferenceable(8) %__t) #4 comdat align 2 {
entry:
  %__t.addr = alloca ptr, align 8
  store ptr %__t, ptr %__t.addr, align 8
  %0 = load ptr, ptr %__t.addr, align 8
  %call = call noundef nonnull align 8 dereferenceable(8) ptr @_ZNSt10_Head_baseILm0EP6ssl_stLb0EE7_M_headERKS2_(ptr noundef nonnull align 8 dereferenceable(8) %0) #3
  ret ptr %call
}

; Function Attrs: mustprogress nounwind uwtable
define linkonce_odr dso_local noundef nonnull align 8 dereferenceable(8) ptr @_ZNSt11_Tuple_implILm0EJP10ssl_ctx_stN4node15FunctionDeleterIS0_XadL_Z12SSL_CTX_freeEEEEEE7_M_headERKS5_(ptr noundef nonnull align 8 dereferenceable(8) %__t) #4 comdat align 2 {
entry:
  %__t.addr = alloca ptr, align 8
  store ptr %__t, ptr %__t.addr, align 8
  %0 = load ptr, ptr %__t.addr, align 8
  %call = call noundef nonnull align 8 dereferenceable(8) ptr @_ZNSt10_Head_baseILm0EP10ssl_ctx_stLb0EE7_M_headERKS2_(ptr noundef nonnull align 8 dereferenceable(8) %0) #3
  ret ptr %call
}

; Function Attrs: mustprogress nounwind uwtable
define linkonce_odr dso_local noundef nonnull align 8 dereferenceable(8) ptr @_ZSt12__get_helperILm0EP6ssl_stJN4node15FunctionDeleterIS0_XadL_Z8SSL_freeEEEEEERKT0_RKSt11_Tuple_implIXT_EJS5_DpT1_EE(ptr noundef nonnull align 8 dereferenceable(8) %__t) #4 comdat {
entry:
  %__t.addr = alloca ptr, align 8
  store ptr %__t, ptr %__t.addr, align 8
  %0 = load ptr, ptr %__t.addr, align 8
  %call = call noundef nonnull align 8 dereferenceable(8) ptr @_ZNSt11_Tuple_implILm0EJP6ssl_stN4node15FunctionDeleterIS0_XadL_Z8SSL_freeEEEEEE7_M_headERKS5_(ptr noundef nonnull align 8 dereferenceable(8) %0) #3
  ret ptr %call
}

; Function Attrs: mustprogress nounwind uwtable
define linkonce_odr dso_local noundef nonnull align 8 dereferenceable(8) ptr @_ZSt12__get_helperILm0EP10ssl_ctx_stJN4node15FunctionDeleterIS0_XadL_Z12SSL_CTX_freeEEEEEERKT0_RKSt11_Tuple_implIXT_EJS5_DpT1_EE(ptr noundef nonnull align 8 dereferenceable(8) %__t) #4 comdat {
entry:
  %__t.addr = alloca ptr, align 8
  store ptr %__t, ptr %__t.addr, align 8
  %0 = load ptr, ptr %__t.addr, align 8
  %call = call noundef nonnull align 8 dereferenceable(8) ptr @_ZNSt11_Tuple_implILm0EJP10ssl_ctx_stN4node15FunctionDeleterIS0_XadL_Z12SSL_CTX_freeEEEEEE7_M_headERKS5_(ptr noundef nonnull align 8 dereferenceable(8) %0) #3
  ret ptr %call
}

; Function Attrs: mustprogress nounwind uwtable
define linkonce_odr dso_local noundef nonnull align 8 dereferenceable(8) ptr @_ZSt3getILm0EJP6ssl_stN4node15FunctionDeleterIS0_XadL_Z8SSL_freeEEEEEERKNSt13tuple_elementIXT_ESt5tupleIJDpT0_EEE4typeERKS9_(ptr noundef nonnull align 8 dereferenceable(8) %__t) #4 comdat {
entry:
  %__t.addr = alloca ptr, align 8
  store ptr %__t, ptr %__t.addr, align 8
  %0 = load ptr, ptr %__t.addr, align 8
  %call = call noundef nonnull align 8 dereferenceable(8) ptr @_ZSt12__get_helperILm0EP6ssl_stJN4node15FunctionDeleterIS0_XadL_Z8SSL_freeEEEEEERKT0_RKSt11_Tuple_implIXT_EJS5_DpT1_EE(ptr noundef nonnull align 8 dereferenceable(8) %0) #3
  ret ptr %call
}

; Function Attrs: mustprogress nounwind uwtable
define linkonce_odr dso_local noundef nonnull align 8 dereferenceable(8) ptr @_ZSt3getILm0EJP10ssl_ctx_stN4node15FunctionDeleterIS0_XadL_Z12SSL_CTX_freeEEEEEERKNSt13tuple_elementIXT_ESt5tupleIJDpT0_EEE4typeERKS9_(ptr noundef nonnull align 8 dereferenceable(8) %__t) #4 comdat {
entry:
  %__t.addr = alloca ptr, align 8
  store ptr %__t, ptr %__t.addr, align 8
  %0 = load ptr, ptr %__t.addr, align 8
  %call = call noundef nonnull align 8 dereferenceable(8) ptr @_ZSt12__get_helperILm0EP10ssl_ctx_stJN4node15FunctionDeleterIS0_XadL_Z12SSL_CTX_freeEEEEEERKT0_RKSt11_Tuple_implIXT_EJS5_DpT1_EE(ptr noundef nonnull align 8 dereferenceable(8) %0) #3
  ret ptr %call
}

; Function Attrs: mustprogress nounwind uwtable
define linkonce_odr dso_local noundef ptr @_ZNK4node17BaseObjectPtrImplINS_6crypto13SecureContextELb0EE15get_base_objectEv(ptr noundef nonnull align 8 dereferenceable(8) %this) #4 comdat align 2 {
entry:
  %this.addr = alloca ptr, align 8
  store ptr %this, ptr %this.addr, align 8
  %this1 = load ptr, ptr %this.addr, align 8
  %data_ = getelementptr inbounds %"class.node::BaseObjectPtrImpl", ptr %this1, i32 0, i32 0
  %0 = load ptr, ptr %data_, align 8
  ret ptr %0
}

; Function Attrs: mustprogress nounwind uwtable
define linkonce_odr dso_local noundef ptr @_ZNKSt15__uniq_ptr_implI6ssl_stN4node15FunctionDeleterIS0_XadL_Z8SSL_freeEEEEE6_M_ptrEv(ptr noundef nonnull align 8 dereferenceable(8) %this) #4 comdat align 2 {
entry:
  %this.addr = alloca ptr, align 8
  store ptr %this, ptr %this.addr, align 8
  %this1 = load ptr, ptr %this.addr, align 8
  %_M_t = getelementptr inbounds %"class.std::__uniq_ptr_impl.12", ptr %this1, i32 0, i32 0
  %call = call noundef nonnull align 8 dereferenceable(8) ptr @_ZSt3getILm0EJP6ssl_stN4node15FunctionDeleterIS0_XadL_Z8SSL_freeEEEEEERKNSt13tuple_elementIXT_ESt5tupleIJDpT0_EEE4typeERKS9_(ptr noundef nonnull align 8 dereferenceable(8) %_M_t) #3
  %0 = load ptr, ptr %call, align 8
  ret ptr %0
}

; Function Attrs: mustprogress nounwind uwtable
define linkonce_odr dso_local noundef ptr @_ZNKSt15__uniq_ptr_implI10ssl_ctx_stN4node15FunctionDeleterIS0_XadL_Z12SSL_CTX_freeEEEEE6_M_ptrEv(ptr noundef nonnull align 8 dereferenceable(8) %this) #4 comdat align 2 {
entry:
  %this.addr = alloca ptr, align 8
  store ptr %this, ptr %this.addr, align 8
  %this1 = load ptr, ptr %this.addr, align 8
  %_M_t = getelementptr inbounds %"class.std::__uniq_ptr_impl.32", ptr %this1, i32 0, i32 0
  %call = call noundef nonnull align 8 dereferenceable(8) ptr @_ZSt3getILm0EJP10ssl_ctx_stN4node15FunctionDeleterIS0_XadL_Z12SSL_CTX_freeEEEEEERKNSt13tuple_elementIXT_ESt5tupleIJDpT0_EEE4typeERKS9_(ptr noundef nonnull align 8 dereferenceable(8) %_M_t) #3
  %0 = load ptr, ptr %call, align 8
  ret ptr %0
}

; Function Attrs: mustprogress nounwind uwtable
define linkonce_odr dso_local noundef ptr @_ZNK4node17BaseObjectPtrImplINS_6crypto13SecureContextELb0EE3getEv(ptr noundef nonnull align 8 dereferenceable(8) %this) #4 comdat align 2 {
entry:
  %this.addr = alloca ptr, align 8
  store ptr %this, ptr %this.addr, align 8
  %this1 = load ptr, ptr %this.addr, align 8
  %call = call noundef ptr @_ZNK4node17BaseObjectPtrImplINS_6crypto13SecureContextELb0EE15get_base_objectEv(ptr noundef nonnull align 8 dereferenceable(8) %this1)
  ret ptr %call
}

; Function Attrs: mustprogress nounwind uwtable
define linkonce_odr dso_local noundef ptr @_ZNKSt10unique_ptrI6ssl_stN4node15FunctionDeleterIS0_XadL_Z8SSL_freeEEEEE3getEv(ptr noundef nonnull align 8 dereferenceable(8) %this) #4 comdat align 2 {
entry:
  %this.addr = alloca ptr, align 8
  store ptr %this, ptr %this.addr, align 8
  %this1 = load ptr, ptr %this.addr, align 8
  %_M_t = getelementptr inbounds %"class.std::unique_ptr.10", ptr %this1, i32 0, i32 0
  %call = call noundef ptr @_ZNKSt15__uniq_ptr_implI6ssl_stN4node15FunctionDeleterIS0_XadL_Z8SSL_freeEEEEE6_M_ptrEv(ptr noundef nonnull align 8 dereferenceable(8) %_M_t) #3
  ret ptr %call
}

; Function Attrs: mustprogress nounwind uwtable
define linkonce_odr dso_local noundef ptr @_ZNKSt10unique_ptrI10ssl_ctx_stN4node15FunctionDeleterIS0_XadL_Z12SSL_CTX_freeEEEEE3getEv(ptr noundef nonnull align 8 dereferenceable(8) %this) #4 comdat align 2 {
entry:
  %this.addr = alloca ptr, align 8
  store ptr %this, ptr %this.addr, align 8
  %this1 = load ptr, ptr %this.addr, align 8
  %_M_t = getelementptr inbounds %"class.std::unique_ptr.30", ptr %this1, i32 0, i32 0
  %call = call noundef ptr @_ZNKSt15__uniq_ptr_implI10ssl_ctx_stN4node15FunctionDeleterIS0_XadL_Z12SSL_CTX_freeEEEEE6_M_ptrEv(ptr noundef nonnull align 8 dereferenceable(8) %_M_t) #3
  ret ptr %call
}

; Function Attrs: mustprogress nounwind uwtable
define linkonce_odr dso_local noundef nonnull align 8 dereferenceable(8) ptr @_ZN4node6crypto13SecureContext3ctxEv(ptr noundef nonnull align 8 dereferenceable(128) %this) #4 comdat align 2 {
entry:
  %this.addr = alloca ptr, align 8
  store ptr %this, ptr %this.addr, align 8
  %this1 = load ptr, ptr %this.addr, align 8
  %ctx_ = getelementptr inbounds %"class.node::crypto::SecureContext", ptr %this1, i32 0, i32 1
  ret ptr %ctx_
}

; Function Attrs: mustprogress nounwind uwtable
define linkonce_odr dso_local noundef ptr @_ZNK4node17BaseObjectPtrImplINS_6crypto13SecureContextELb0EEptEv(ptr noundef nonnull align 8 dereferenceable(8) %this) #4 comdat align 2 {
entry:
  %this.addr = alloca ptr, align 8
  store ptr %this, ptr %this.addr, align 8
  %this1 = load ptr, ptr %this.addr, align 8
  %call = call noundef ptr @_ZNK4node17BaseObjectPtrImplINS_6crypto13SecureContextELb0EE3getEv(ptr noundef nonnull align 8 dereferenceable(8) %this1)
  ret ptr %call
}

; Function Attrs: mustprogress nounwind uwtable
define dso_local noundef zeroext i1 @_ZN4node6crypto13UseSNIContextERKSt10unique_ptrI6ssl_stNS_15FunctionDeleterIS2_XadL_Z8SSL_freeEEEEENS_17BaseObjectPtrImplINS0_13SecureContextELb0EEE(ptr noundef nonnull align 8 dereferenceable(8) %ssl, ptr noundef %context) #4 {
entry:
  %ssl.addr = alloca ptr, align 8
  %context.indirect_addr = alloca ptr, align 8
  %ctx = alloca ptr, align 8
  %x509 = alloca ptr, align 8
  %pkey = alloca ptr, align 8
  %chain = alloca ptr, align 8
  %err = alloca i32, align 4
  store ptr %ssl, ptr %ssl.addr, align 8
  store ptr %context, ptr %context.indirect_addr, align 8
  %call = call noundef ptr @_ZNK4node17BaseObjectPtrImplINS_6crypto13SecureContextELb0EEptEv(ptr noundef nonnull align 8 dereferenceable(8) %context)
  %call1 = call noundef nonnull align 8 dereferenceable(8) ptr @_ZN4node6crypto13SecureContext3ctxEv(ptr noundef nonnull align 8 dereferenceable(128) %call)
  %call2 = call noundef ptr @_ZNKSt10unique_ptrI10ssl_ctx_stN4node15FunctionDeleterIS0_XadL_Z12SSL_CTX_freeEEEEE3getEv(ptr noundef nonnull align 8 dereferenceable(8) %call1) #3
  store ptr %call2, ptr %ctx, align 8
  %0 = load ptr, ptr %ctx, align 8
  %call3 = call ptr @SSL_CTX_get0_certificate(ptr noundef %0)
  store ptr %call3, ptr %x509, align 8
  %1 = load ptr, ptr %ctx, align 8
  %call4 = call ptr @SSL_CTX_get0_privatekey(ptr noundef %1)
  store ptr %call4, ptr %pkey, align 8
  %2 = load ptr, ptr %ctx, align 8
  %call5 = call i64 @SSL_CTX_ctrl(ptr noundef %2, i32 noundef 115, i64 noundef 0, ptr noundef %chain)
  %conv = trunc i64 %call5 to i32
  store i32 %conv, ptr %err, align 4
  %3 = load i32, ptr %err, align 4
  %cmp = icmp eq i32 %3, 1
  br i1 %cmp, label %if.then, label %if.end

if.then:                                          ; preds = %entry
  %4 = load ptr, ptr %ssl.addr, align 8
  %call6 = call noundef ptr @_ZNKSt10unique_ptrI6ssl_stN4node15FunctionDeleterIS0_XadL_Z8SSL_freeEEEEE3getEv(ptr noundef nonnull align 8 dereferenceable(8) %4) #3
  %5 = load ptr, ptr %x509, align 8
  %call7 = call i32 @SSL_use_certificate(ptr noundef %call6, ptr noundef %5)
  store i32 %call7, ptr %err, align 4
  br label %if.end

if.end:                                           ; preds = %if.then, %entry
  %6 = load i32, ptr %err, align 4
  %cmp8 = icmp eq i32 %6, 1
  br i1 %cmp8, label %if.then9, label %if.end12

if.then9:                                         ; preds = %if.end
  %7 = load ptr, ptr %ssl.addr, align 8
  %call10 = call noundef ptr @_ZNKSt10unique_ptrI6ssl_stN4node15FunctionDeleterIS0_XadL_Z8SSL_freeEEEEE3getEv(ptr noundef nonnull align 8 dereferenceable(8) %7) #3
  %8 = load ptr, ptr %pkey, align 8
  %call11 = call i32 @SSL_use_PrivateKey(ptr noundef %call10, ptr noundef %8)
  store i32 %call11, ptr %err, align 4
  br label %if.end12

if.end12:                                         ; preds = %if.then9, %if.end
  %9 = load i32, ptr %err, align 4
  %cmp13 = icmp eq i32 %9, 1
  br i1 %cmp13, label %land.lhs.true, label %if.end19

land.lhs.true:                                    ; preds = %if.end12
  %10 = load ptr, ptr %chain, align 8
  %cmp14 = icmp ne ptr %10, null
  br i1 %cmp14, label %if.then15, label %if.end19

if.then15:                                        ; preds = %land.lhs.true
  %11 = load ptr, ptr %ssl.addr, align 8
  %call16 = call noundef ptr @_ZNKSt10unique_ptrI6ssl_stN4node15FunctionDeleterIS0_XadL_Z8SSL_freeEEEEE3getEv(ptr noundef nonnull align 8 dereferenceable(8) %11) #3
  %12 = load ptr, ptr %chain, align 8
  %call17 = call i64 @SSL_ctrl(ptr noundef %call16, i32 noundef 88, i64 noundef 1, ptr noundef %12)
  %conv18 = trunc i64 %call17 to i32
  store i32 %conv18, ptr %err, align 4
  br label %if.end19

if.end19:                                         ; preds = %if.then15, %land.lhs.true, %if.end12
  %13 = load i32, ptr %err, align 4
  %cmp20 = icmp eq i32 %13, 1
  ret i1 %cmp20
}