; Function Attrs: mustprogress nounwind uwtable
define dso_local noundef zeroext i1 @_ZN4node6crypto13UseSNIContextERKSt10unique_ptrI6ssl_stNS_15FunctionDeleterIS2_XadL_Z8SSL_freeEEEEENS_17BaseObjectPtrImplINS0_13SecureContextELb0EEE(ptr nocapture noundef nonnull readonly align 8 dereferenceable(8) %ssl, ptr nocapture noundef readonly %context) local_unnamed_addr #3 {
entry:
  %chain = alloca ptr, align 8
  %0 = load ptr, ptr %context, align 8
  %ctx_.i = getelementptr inbounds i8, ptr %0, i64 32
  %1 = load ptr, ptr %ctx_.i, align 8
  %call3 = tail call ptr @SSL_CTX_get0_certificate(ptr noundef %1) #17
  %call4 = tail call ptr @SSL_CTX_get0_privatekey(ptr noundef %1) #17
  %call5 = call i64 @SSL_CTX_ctrl(ptr noundef %1, i32 noundef 115, i64 noundef 0, ptr noundef nonnull %chain) #17
  %conv = trunc i64 %call5 to i32
  %cmp = icmp eq i32 %conv, 1
  br i1 %cmp, label %if.end, label %if.end19

if.end:                                           ; preds = %entry
  %2 = load ptr, ptr %ssl, align 8
  %call7 = call i32 @SSL_use_certificate(ptr noundef %2, ptr noundef %call3) #17
  %cmp8 = icmp eq i32 %call7, 1
  br i1 %cmp8, label %if.end12, label %if.end19

if.end12:                                         ; preds = %if.end
  %3 = load ptr, ptr %ssl, align 8
  %call11 = call i32 @SSL_use_PrivateKey(ptr noundef %3, ptr noundef %call4) #17
  %cmp13 = icmp eq i32 %call11, 1
  %4 = load ptr, ptr %chain, align 8
  %cmp14 = icmp ne ptr %4, null
  %or.cond = select i1 %cmp13, i1 %cmp14, i1 false
  br i1 %or.cond, label %if.then15, label %if.end19

if.then15:                                        ; preds = %if.end12
  %5 = load ptr, ptr %ssl, align 8
  %call17 = call i64 @SSL_ctrl(ptr noundef %5, i32 noundef 88, i64 noundef 1, ptr noundef nonnull %4) #17
  %conv18 = trunc i64 %call17 to i32
  br label %if.end19

if.end19:                                         ; preds = %entry, %if.end, %if.then15, %if.end12
  %err.2 = phi i32 [ %conv18, %if.then15 ], [ %call11, %if.end12 ], [ %call7, %if.end ], [ %conv, %entry ]
  %cmp20 = icmp eq i32 %err.2, 1
  ret i1 %cmp20
}